; Function Attrs: mustprogress uwtable
define void @_ZN3nix9showPathsERKSt3setINSt7__cxx1112basic_stringIcSt11char_traitsIcESaIcEEESt4lessIS6_ESaIS6_EE(ptr dead_on_unwind noalias writable sret(%"class.std::__cxx11::basic_string") align 8 %0, ptr noundef nonnull align 8 dereferenceable(48) %1) local_unnamed_addr #5 personality ptr @__gxx_personality_v0 {
  %3 = alloca %"class.std::__cxx11::list.206", align 8
  call void @_ZN3nix12quoteStringsISt3setINSt7__cxx1112basic_stringIcSt11char_traitsIcESaIcEEESt4lessIS7_ESaIS7_EEEENS2_4listIS7_SA_EERKT_(ptr dead_on_unwind nonnull writable sret(%"class.std::__cxx11::list.206") align 8 %3, ptr noundef nonnull align 8 dereferenceable(48) %1)
  invoke void @_ZN3nix16concatStringsSepINSt7__cxx114listINS1_12basic_stringIcSt11char_traitsIcESaIcEEESaIS7_EEEEES7_St17basic_string_viewIcS5_ERKT_(ptr dead_on_unwind writable sret(%"class.std::__cxx11::basic_string") align 8 %0, i64 2, ptr nonnull @.str.31, ptr noundef nonnull align 8 dereferenceable(24) %3)
          to label %4 unwind label %14

4:                                                ; preds = %2
  %5 = load ptr, ptr %3, align 8
  %.not8.i.i.i = icmp eq ptr %5, %3
  br i1 %.not8.i.i.i, label %_ZNSt7__cxx114listINS_12basic_stringIcSt11char_traitsIcESaIcEEESaIS5_EED2Ev.exit, label %.lr.ph.i.i.i

.lr.ph.i.i.i:                                     ; preds = %4, %_ZNSt16allocator_traitsISaISt10_List_nodeINSt7__cxx1112basic_stringIcSt11char_traitsIcESaIcEEEEEE7destroyIS6_EEvRS8_PT_.exit.i.i.i
  %.09.i.i.i = phi ptr [ %6, %_ZNSt16allocator_traitsISaISt10_List_nodeINSt7__cxx1112basic_stringIcSt11char_traitsIcESaIcEEEEEE7destroyIS6_EEvRS8_PT_.exit.i.i.i ], [ %5, %4 ]
  %6 = load ptr, ptr %.09.i.i.i, align 8
  %7 = getelementptr inbounds i8, ptr %.09.i.i.i, i64 16
  %8 = load ptr, ptr %7, align 8
  %9 = getelementptr inbounds i8, ptr %.09.i.i.i, i64 32
  %10 = icmp eq ptr %8, %9
  br i1 %10, label %_ZNKSt7__cxx1112basic_stringIcSt11char_traitsIcESaIcEE11_M_is_localEv.exit.thread.i.i.i.i.i.i.i, label %_ZNKSt7__cxx1112basic_stringIcSt11char_traitsIcESaIcEE11_M_is_localEv.exit.i.i.i.i.i.i.i

_ZNKSt7__cxx1112basic_stringIcSt11char_traitsIcESaIcEE11_M_is_localEv.exit.thread.i.i.i.i.i.i.i: ; preds = %.lr.ph.i.i.i
  %11 = getelementptr inbounds i8, ptr %.09.i.i.i, i64 24
  %12 = load i64, ptr %11, align 8
  %13 = icmp ult i64 %12, 16
  call void @llvm.assume(i1 %13)
  br label %_ZNSt16allocator_traitsISaISt10_List_nodeINSt7__cxx1112basic_stringIcSt11char_traitsIcESaIcEEEEEE7destroyIS6_EEvRS8_PT_.exit.i.i.i

_ZNKSt7__cxx1112basic_stringIcSt11char_traitsIcESaIcEE11_M_is_localEv.exit.i.i.i.i.i.i.i: ; preds = %.lr.ph.i.i.i
  call void @_ZdlPv(ptr noundef %8) #34
  br label %_ZNSt16allocator_traitsISaISt10_List_nodeINSt7__cxx1112basic_stringIcSt11char_traitsIcESaIcEEEEEE7destroyIS6_EEvRS8_PT_.exit.i.i.i

_ZNSt16allocator_traitsISaISt10_List_nodeINSt7__cxx1112basic_stringIcSt11char_traitsIcESaIcEEEEEE7destroyIS6_EEvRS8_PT_.exit.i.i.i: ; preds = %_ZNKSt7__cxx1112basic_stringIcSt11char_traitsIcESaIcEE11_M_is_localEv.exit.i.i.i.i.i.i.i, %_ZNKSt7__cxx1112basic_stringIcSt11char_traitsIcESaIcEE11_M_is_localEv.exit.thread.i.i.i.i.i.i.i
  call void @_ZNSaIcED2Ev(ptr noundef nonnull align 1 dereferenceable(1) %7) #31
  call void @_ZdlPv(ptr noundef nonnull %.09.i.i.i) #34
  %.not.i.i.i = icmp eq ptr %6, %3
  br i1 %.not.i.i.i, label %_ZNSt7__cxx114listINS_12basic_stringIcSt11char_traitsIcESaIcEEESaIS5_EED2Ev.exit, label %.lr.ph.i.i.i, !llvm.loop !232

_ZNSt7__cxx114listINS_12basic_stringIcSt11char_traitsIcESaIcEEESaIS5_EED2Ev.exit: ; preds = %_ZNSt16allocator_traitsISaISt10_List_nodeINSt7__cxx1112basic_stringIcSt11char_traitsIcESaIcEEEEEE7destroyIS6_EEvRS8_PT_.exit.i.i.i, %4
  ret void

14:                                               ; preds = %2
  %15 = landingpad { ptr, i32 }
          cleanup
  call void @_ZNSt7__cxx114listINS_12basic_stringIcSt11char_traitsIcESaIcEEESaIS5_EED2Ev(ptr noundef nonnull align 8 dereferenceable(24) %3) #31
  resume { ptr, i32 } %15
}